target datalayout = "e-m:e-p270:32:32-p271:32:32-p272:64:64-i64:64-i128:128-f80:128-n8:16:32:64-S128"
target triple = "x86_64-pc-linux-gnu"

@.str.1 = private unnamed_addr constant [27 x i8] c"../openssl/ssl/tls13_enc.c\00", align 1
@__func__.tls13_generate_master_secret = private unnamed_addr constant [29 x i8] c"tls13_generate_master_secret\00", align 1

; Function Attrs: nounwind uwtable
define dso_local i32 @tls13_generate_master_secret(ptr noundef %0, ptr noundef %1, ptr noundef %2, i64 noundef %3, ptr noundef %4) #0 {
  %6 = alloca i32, align 4
  %7 = alloca ptr, align 8
  %8 = alloca ptr, align 8
  %9 = alloca ptr, align 8
  %10 = alloca i64, align 8
  %11 = alloca ptr, align 8
  %12 = alloca ptr, align 8
  %13 = alloca i32, align 4
  %14 = alloca i32, align 4
  store ptr %0, ptr %7, align 8, !tbaa !25
  store ptr %1, ptr %8, align 8, !tbaa !9
  store ptr %2, ptr %9, align 8, !tbaa !9
  store i64 %3, ptr %10, align 8, !tbaa !13
  store ptr %4, ptr %11, align 8, !tbaa !101
  call void @llvm.lifetime.start.p0(i64 8, ptr %12) #5
  %15 = load ptr, ptr %7, align 8, !tbaa !25
  %16 = call ptr @ssl_handshake_md(ptr noundef %15)
  store ptr %16, ptr %12, align 8, !tbaa !11
  call void @llvm.lifetime.start.p0(i64 4, ptr %13) #5
  %17 = load ptr, ptr %12, align 8, !tbaa !11
  %18 = call i32 @EVP_MD_get_size(ptr noundef %17)
  store i32 %18, ptr %13, align 4, !tbaa !15
  %19 = load i32, ptr %13, align 4, !tbaa !15
  %20 = icmp sle i32 %19, 0
  br i1 %20, label %21, label %23

21:                                               ; preds = %5
  call void @ERR_new()
  call void @ERR_set_debug(ptr noundef @.str.1, i32 noundef 255, ptr noundef @__func__.tls13_generate_master_secret)
  %22 = load ptr, ptr %7, align 8, !tbaa !25
  call void (ptr, i32, i32, ptr, ...) @ossl_statem_fatal(ptr noundef %22, i32 noundef 80, i32 noundef 786691, ptr noundef null)
  store i32 0, ptr %6, align 4
  store i32 1, ptr %14, align 4
  br label %32

23:                                               ; preds = %5
  %24 = load i32, ptr %13, align 4, !tbaa !15
  %25 = sext i32 %24 to i64
  %26 = load ptr, ptr %11, align 8, !tbaa !101
  store i64 %25, ptr %26, align 8, !tbaa !13
  %27 = load ptr, ptr %7, align 8, !tbaa !25
  %28 = load ptr, ptr %12, align 8, !tbaa !11
  %29 = load ptr, ptr %9, align 8, !tbaa !9
  %30 = load ptr, ptr %8, align 8, !tbaa !9
  %31 = call i32 @tls13_generate_secret(ptr noundef %27, ptr noundef %28, ptr noundef %29, ptr noundef null, i64 noundef 0, ptr noundef %30)
  store i32 %31, ptr %6, align 4
  store i32 1, ptr %14, align 4
  br label %32

32:                                               ; preds = %23, %21
  call void @llvm.lifetime.end.p0(i64 4, ptr %13) #5
  call void @llvm.lifetime.end.p0(i64 8, ptr %12) #5
  %33 = load i32, ptr %6, align 4
  ret i32 %33
}