; Function Attrs: nounwind uwtable
define dso_local range(i32 0, 2) i32 @tls13_generate_master_secret(ptr noundef %0, ptr noundef %1, ptr noundef %2, i64 noundef %3, ptr noundef writeonly captures(none) %4) local_unnamed_addr #0 {
  %6 = tail call ptr @ssl_handshake_md(ptr noundef %0) #4
  %7 = tail call i32 @EVP_MD_get_size(ptr noundef %6) #4
  %8 = icmp slt i32 %7, 1
  br i1 %8, label %9, label %10

9:                                                ; preds = %5
  tail call void @ERR_new() #4
  tail call void @ERR_set_debug(ptr noundef nonnull @.str.1, i32 noundef 255, ptr noundef nonnull @__func__.tls13_generate_master_secret) #4
  tail call void (ptr, i32, i32, ptr, ...) @ossl_statem_fatal(ptr noundef %0, i32 noundef 80, i32 noundef 786691, ptr noundef null) #4
  br label %13

10:                                               ; preds = %5
  %11 = zext nneg i32 %7 to i64
  store i64 %11, ptr %4, align 8, !tbaa !13
  %12 = tail call i32 @tls13_generate_secret(ptr noundef %0, ptr noundef %6, ptr noundef %2, ptr noundef null, i64 noundef 0, ptr noundef %1)
  br label %13

13:                                               ; preds = %10, %9
  %.0 = phi i32 [ 0, %9 ], [ %12, %10 ]
  ret i32 %.0
}